target datalayout = "e-m:e-p270:32:32-p271:32:32-p272:64:64-i64:64-i128:128-f80:128-n8:16:32:64-S128"
target triple = "x86_64-pc-linux-gnu"

%struct._typeobject = type { %struct.PyVarObject, ptr, i64, i64, ptr, i64, ptr, ptr, ptr, ptr, ptr, ptr, ptr, ptr, ptr, ptr, ptr, ptr, ptr, i64, ptr, ptr, ptr, ptr, i64, ptr, ptr, ptr, ptr, ptr, ptr, ptr, ptr, ptr, i64, ptr, ptr, ptr, ptr, ptr, ptr, ptr, ptr, ptr, ptr, ptr, i32, ptr, ptr, i8, i16 }
%struct.PyVarObject = type { %struct._object, i64 }
%struct._object = type { %union.anon, ptr }
%union.anon = type { i64 }
%struct._Py_BackoffCounter = type { i16 }
%union._Py_CODEUNIT = type { i16 }
%struct.anon = type { i8, i8 }
%union._PyStackRef = type { i64 }
%struct._PyToBoolCache = type { %struct._Py_BackoffCounter, [2 x i16] }

@PyList_Type = external global %struct._typeobject, align 8
@PyLong_Type = external global %struct._typeobject, align 8
@PyUnicode_Type = external global %struct._typeobject, align 8
@PyBool_Type = external global %struct._typeobject, align 8
@_Py_NoneStruct = external global %struct._object, align 8
@_PyOpcode_Deopt = external constant [256 x i8], align 16

; Function Attrs: inlinehint nounwind uwtable
define internal i16 @make_backoff_counter(i16 noundef zeroext %0, i16 noundef zeroext %1) #2 {
  %3 = alloca %struct._Py_BackoffCounter, align 2
  %4 = alloca i16, align 2
  %5 = alloca i16, align 2
  store i16 %0, ptr %4, align 2, !tbaa !13
  store i16 %1, ptr %5, align 2, !tbaa !13
  %6 = load i16, ptr %4, align 2, !tbaa !13
  %7 = zext i16 %6 to i32
  %8 = shl i32 %7, 4
  %9 = load i16, ptr %5, align 2, !tbaa !13
  %10 = zext i16 %9 to i32
  %11 = or i32 %8, %10
  %12 = trunc i32 %11 to i16
  %13 = getelementptr inbounds nuw %struct._Py_BackoffCounter, ptr %3, i32 0, i32 0
  store i16 %12, ptr %13, align 2, !tbaa !187
  %14 = getelementptr inbounds nuw %struct._Py_BackoffCounter, ptr %3, i32 0, i32 0
  %15 = load i16, ptr %14, align 2
  ret i16 %15
}

; Function Attrs: inlinehint nounwind uwtable
define internal i16 @adaptive_counter_bits(i16 noundef zeroext %0, i16 noundef zeroext %1) #2 {
  %3 = alloca %struct._Py_BackoffCounter, align 2
  %4 = alloca i16, align 2
  %5 = alloca i16, align 2
  store i16 %0, ptr %4, align 2, !tbaa !13
  store i16 %1, ptr %5, align 2, !tbaa !13
  %6 = load i16, ptr %4, align 2, !tbaa !13
  %7 = load i16, ptr %5, align 2, !tbaa !13
  %8 = call i16 @make_backoff_counter(i16 noundef zeroext %6, i16 noundef zeroext %7)
  %9 = getelementptr inbounds nuw %struct._Py_BackoffCounter, ptr %3, i32 0, i32 0
  store i16 %8, ptr %9, align 2
  %10 = getelementptr inbounds nuw %struct._Py_BackoffCounter, ptr %3, i32 0, i32 0
  %11 = load i16, ptr %10, align 2
  ret i16 %11
}

; Function Attrs: inlinehint nounwind uwtable
define internal i16 @restart_backoff_counter(i16 %0) #2 {
  %2 = alloca %struct._Py_BackoffCounter, align 2
  %3 = alloca %struct._Py_BackoffCounter, align 2
  %4 = alloca i32, align 4
  %5 = alloca i32, align 4
  %6 = getelementptr inbounds nuw %struct._Py_BackoffCounter, ptr %3, i32 0, i32 0
  store i16 %0, ptr %6, align 2
  call void @llvm.lifetime.start.p0(i64 4, ptr %4) #7
  %7 = getelementptr inbounds nuw %struct._Py_BackoffCounter, ptr %3, i32 0, i32 0
  %8 = load i16, ptr %7, align 2, !tbaa !187
  %9 = zext i16 %8 to i32
  %10 = and i32 %9, 15
  store i32 %10, ptr %4, align 4, !tbaa !10
  %11 = load i32, ptr %4, align 4, !tbaa !10
  %12 = icmp slt i32 %11, 12
  br i1 %12, label %13, label %24

13:                                               ; preds = %1
  %14 = load i32, ptr %4, align 4, !tbaa !10
  %15 = add i32 %14, 1
  %16 = shl i32 1, %15
  %17 = sub i32 %16, 1
  %18 = trunc i32 %17 to i16
  %19 = load i32, ptr %4, align 4, !tbaa !10
  %20 = add i32 %19, 1
  %21 = trunc i32 %20 to i16
  %22 = call i16 @make_backoff_counter(i16 noundef zeroext %18, i16 noundef zeroext %21)
  %23 = getelementptr inbounds nuw %struct._Py_BackoffCounter, ptr %2, i32 0, i32 0
  store i16 %22, ptr %23, align 2
  store i32 1, ptr %5, align 4
  br label %27

24:                                               ; preds = %1
  %25 = call i16 @make_backoff_counter(i16 noundef zeroext 4095, i16 noundef zeroext 12)
  %26 = getelementptr inbounds nuw %struct._Py_BackoffCounter, ptr %2, i32 0, i32 0
  store i16 %25, ptr %26, align 2
  store i32 1, ptr %5, align 4
  br label %27

27:                                               ; preds = %24, %13
  call void @llvm.lifetime.end.p0(i64 4, ptr %4) #7
  %28 = getelementptr inbounds nuw %struct._Py_BackoffCounter, ptr %2, i32 0, i32 0
  %29 = load i16, ptr %28, align 2
  ret i16 %29
}

; Function Attrs: inlinehint nounwind uwtable
define internal i16 @adaptive_counter_cooldown() #2 {
  %1 = alloca %struct._Py_BackoffCounter, align 2
  %2 = call i16 @adaptive_counter_bits(i16 noundef zeroext 52, i16 noundef zeroext 0)
  %3 = getelementptr inbounds nuw %struct._Py_BackoffCounter, ptr %1, i32 0, i32 0
  store i16 %2, ptr %3, align 2
  %4 = getelementptr inbounds nuw %struct._Py_BackoffCounter, ptr %1, i32 0, i32 0
  %5 = load i16, ptr %4, align 2
  ret i16 %5
}

; Function Attrs: inlinehint nounwind uwtable
define internal void @set_counter(ptr noundef %0, i16 %1) #2 {
  %3 = alloca %struct._Py_BackoffCounter, align 2
  %4 = alloca ptr, align 8
  %5 = getelementptr inbounds nuw %struct._Py_BackoffCounter, ptr %3, i32 0, i32 0
  store i16 %1, ptr %5, align 2
  store ptr %0, ptr %4, align 8, !tbaa !4
  %6 = getelementptr inbounds nuw %struct._Py_BackoffCounter, ptr %3, i32 0, i32 0
  %7 = load i16, ptr %6, align 2, !tbaa !187
  %8 = load ptr, ptr %4, align 8, !tbaa !4
  %9 = getelementptr inbounds nuw %struct._Py_BackoffCounter, ptr %8, i32 0, i32 0
  store i16 %7, ptr %9, align 2, !tbaa !187
  ret void
}

; Function Attrs: inlinehint nounwind uwtable
define internal i16 @adaptive_counter_backoff(i16 %0) #2 {
  %2 = alloca %struct._Py_BackoffCounter, align 2
  %3 = alloca %struct._Py_BackoffCounter, align 2
  %4 = getelementptr inbounds nuw %struct._Py_BackoffCounter, ptr %3, i32 0, i32 0
  store i16 %0, ptr %4, align 2
  %5 = getelementptr inbounds nuw %struct._Py_BackoffCounter, ptr %3, i32 0, i32 0
  %6 = load i16, ptr %5, align 2
  %7 = call i16 @restart_backoff_counter(i16 %6)
  %8 = getelementptr inbounds nuw %struct._Py_BackoffCounter, ptr %2, i32 0, i32 0
  store i16 %7, ptr %8, align 2
  %9 = getelementptr inbounds nuw %struct._Py_BackoffCounter, ptr %2, i32 0, i32 0
  %10 = load i16, ptr %9, align 2
  ret i16 %10
}

; Function Attrs: inlinehint nounwind uwtable
define internal i16 @load_counter(ptr noundef %0) #2 {
  %2 = alloca %struct._Py_BackoffCounter, align 2
  %3 = alloca ptr, align 8
  store ptr %0, ptr %3, align 8, !tbaa !4
  %4 = getelementptr inbounds nuw %struct._Py_BackoffCounter, ptr %2, i32 0, i32 0
  %5 = load ptr, ptr %3, align 8, !tbaa !4
  %6 = getelementptr inbounds nuw %struct._Py_BackoffCounter, ptr %5, i32 0, i32 0
  %7 = load i16, ptr %6, align 2, !tbaa !187
  store i16 %7, ptr %4, align 2, !tbaa !187
  %8 = getelementptr inbounds nuw %struct._Py_BackoffCounter, ptr %2, i32 0, i32 0
  %9 = load i16, ptr %8, align 2
  ret i16 %9
}

; Function Attrs: inlinehint nounwind uwtable
define internal i32 @set_opcode(ptr noundef %0, i8 noundef zeroext %1) #2 {
  %3 = alloca ptr, align 8
  %4 = alloca i8, align 1
  store ptr %0, ptr %3, align 8, !tbaa !4
  store i8 %1, ptr %4, align 1, !tbaa !15
  %5 = load i8, ptr %4, align 1, !tbaa !15
  %6 = load ptr, ptr %3, align 8, !tbaa !4
  %7 = getelementptr inbounds nuw %struct.anon, ptr %6, i32 0, i32 0
  store i8 %5, ptr %7, align 2, !tbaa !15
  ret i32 1
}

; Function Attrs: inlinehint nounwind uwtable
define internal void @specialize(ptr noundef %0, i8 noundef zeroext %1) #2 {
  %3 = alloca ptr, align 8
  %4 = alloca i8, align 1
  %5 = alloca %struct._Py_BackoffCounter, align 2
  store ptr %0, ptr %3, align 8, !tbaa !4
  store i8 %1, ptr %4, align 1, !tbaa !15
  %6 = load ptr, ptr %3, align 8, !tbaa !4
  %7 = load i8, ptr %4, align 1, !tbaa !15
  %8 = call i32 @set_opcode(ptr noundef %6, i8 noundef zeroext %7)
  %9 = icmp ne i32 %8, 0
  br i1 %9, label %11, label %10

10:                                               ; preds = %2
  br label %18

11:                                               ; preds = %2
  %12 = load ptr, ptr %3, align 8, !tbaa !4
  %13 = getelementptr %struct._Py_BackoffCounter, ptr %12, i64 1
  %14 = call i16 @adaptive_counter_cooldown()
  %15 = getelementptr inbounds nuw %struct._Py_BackoffCounter, ptr %5, i32 0, i32 0
  store i16 %14, ptr %15, align 2
  %16 = getelementptr inbounds nuw %struct._Py_BackoffCounter, ptr %5, i32 0, i32 0
  %17 = load i16, ptr %16, align 2
  call void @set_counter(ptr noundef %13, i16 %17)
  br label %18

18:                                               ; preds = %11, %10
  ret void
}

; Function Attrs: inlinehint nounwind uwtable
define internal void @unspecialize(ptr noundef %0) #2 {
  %2 = alloca ptr, align 8
  %3 = alloca i8, align 1
  %4 = alloca i8, align 1
  %5 = alloca i32, align 4
  %6 = alloca ptr, align 8
  %7 = alloca %struct._Py_BackoffCounter, align 2
  %8 = alloca %struct._Py_BackoffCounter, align 2
  store ptr %0, ptr %2, align 8, !tbaa !4
  call void @llvm.lifetime.start.p0(i64 1, ptr %3) #7
  %9 = load ptr, ptr %2, align 8, !tbaa !4
  %10 = getelementptr inbounds nuw %struct.anon, ptr %9, i32 0, i32 0
  %11 = load i8, ptr %10, align 2, !tbaa !15
  store i8 %11, ptr %3, align 1, !tbaa !15
  call void @llvm.lifetime.start.p0(i64 1, ptr %4) #7
  %12 = load i8, ptr %3, align 1, !tbaa !15
  %13 = zext i8 %12 to i64
  %14 = getelementptr [256 x i8], ptr @_PyOpcode_Deopt, i64 0, i64 %13
  %15 = load i8, ptr %14, align 1, !tbaa !15
  store i8 %15, ptr %4, align 1, !tbaa !15
  %16 = load ptr, ptr %2, align 8, !tbaa !4
  %17 = load i8, ptr %4, align 1, !tbaa !15
  %18 = call i32 @set_opcode(ptr noundef %16, i8 noundef zeroext %17)
  %19 = icmp ne i32 %18, 0
  br i1 %19, label %21, label %20

20:                                               ; preds = %1
  store i32 1, ptr %5, align 4
  br label %34

21:                                               ; preds = %1
  call void @llvm.lifetime.start.p0(i64 8, ptr %6) #7
  %22 = load ptr, ptr %2, align 8, !tbaa !4
  %23 = getelementptr %struct._Py_BackoffCounter, ptr %22, i64 1
  store ptr %23, ptr %6, align 8, !tbaa !4
  call void @llvm.lifetime.start.p0(i64 2, ptr %7) #7
  %24 = load ptr, ptr %6, align 8, !tbaa !4
  %25 = call i16 @load_counter(ptr noundef %24)
  %26 = getelementptr inbounds nuw %struct._Py_BackoffCounter, ptr %7, i32 0, i32 0
  store i16 %25, ptr %26, align 2
  %27 = load ptr, ptr %6, align 8, !tbaa !4
  %28 = getelementptr inbounds nuw %struct._Py_BackoffCounter, ptr %7, i32 0, i32 0
  %29 = load i16, ptr %28, align 2
  %30 = call i16 @adaptive_counter_backoff(i16 %29)
  %31 = getelementptr inbounds nuw %struct._Py_BackoffCounter, ptr %8, i32 0, i32 0
  store i16 %30, ptr %31, align 2
  %32 = getelementptr inbounds nuw %struct._Py_BackoffCounter, ptr %8, i32 0, i32 0
  %33 = load i16, ptr %32, align 2
  call void @set_counter(ptr noundef %27, i16 %33)
  call void @llvm.lifetime.end.p0(i64 2, ptr %7) #7
  call void @llvm.lifetime.end.p0(i64 8, ptr %6) #7
  store i32 0, ptr %5, align 4
  br label %34

34:                                               ; preds = %21, %20
  call void @llvm.lifetime.end.p0(i64 1, ptr %4) #7
  call void @llvm.lifetime.end.p0(i64 1, ptr %3) #7
  %35 = load i32, ptr %5, align 4
  switch i32 %35, label %37 [
    i32 0, label %36
    i32 1, label %36
  ]

36:                                               ; preds = %34, %34
  ret void

37:                                               ; preds = %34
  unreachable
}

; Function Attrs: inlinehint nounwind uwtable
define internal void @write_u32(ptr noundef %0, i32 noundef %1) #2 {
  %3 = alloca ptr, align 8
  %4 = alloca i32, align 4
  store ptr %0, ptr %3, align 8, !tbaa !55
  store i32 %1, ptr %4, align 4, !tbaa !10
  %5 = load ptr, ptr %3, align 8, !tbaa !55
  call void @llvm.memcpy.p0.p0.i64(ptr align 2 %5, ptr align 4 %4, i64 4, i1 false)
  ret void
}

; Function Attrs: inlinehint nounwind uwtable
define internal i32 @PyType_HasFeature(ptr noundef %0, i64 noundef %1) #2 {
  %3 = alloca ptr, align 8
  %4 = alloca i64, align 8
  %5 = alloca i64, align 8
  store ptr %0, ptr %3, align 8, !tbaa !20
  store i64 %1, ptr %4, align 8, !tbaa !8
  call void @llvm.lifetime.start.p0(i64 8, ptr %5) #7
  %6 = load ptr, ptr %3, align 8, !tbaa !20
  %7 = getelementptr inbounds nuw %struct._typeobject, ptr %6, i32 0, i32 19
  %8 = load i64, ptr %7, align 8, !tbaa !38
  store i64 %8, ptr %5, align 8, !tbaa !8
  %9 = load i64, ptr %5, align 8, !tbaa !8
  %10 = load i64, ptr %4, align 8, !tbaa !8
  %11 = and i64 %9, %10
  %12 = icmp ne i64 %11, 0
  %13 = zext i1 %12 to i32
  call void @llvm.lifetime.end.p0(i64 8, ptr %5) #7
  ret i32 %13
}

; Function Attrs: inlinehint nounwind uwtable
define internal ptr @_Py_TYPE(ptr noundef %0) #2 {
  %2 = alloca ptr, align 8
  store ptr %0, ptr %2, align 8, !tbaa !18
  %3 = load ptr, ptr %2, align 8, !tbaa !18
  %4 = getelementptr inbounds nuw %struct._object, ptr %3, i32 0, i32 1
  %5 = load ptr, ptr %4, align 8, !tbaa !34
  ret ptr %5
}

; Function Attrs: inlinehint nounwind uwtable
define internal i32 @Py_IS_TYPE(ptr noundef %0, ptr noundef %1) #2 {
  %3 = alloca ptr, align 8
  %4 = alloca ptr, align 8
  store ptr %0, ptr %3, align 8, !tbaa !18
  store ptr %1, ptr %4, align 8, !tbaa !20
  %5 = load ptr, ptr %3, align 8, !tbaa !18
  %6 = call ptr @_Py_TYPE(ptr noundef %5)
  %7 = load ptr, ptr %4, align 8, !tbaa !20
  %8 = icmp eq ptr %6, %7
  %9 = zext i1 %8 to i32
  ret i32 %9
}

; Function Attrs: nounwind uwtable
define hidden void @_Py_Specialize_ToBool(i64 %0, ptr noundef %1) #0 {
  %3 = alloca %union._PyStackRef, align 8
  %4 = alloca ptr, align 8
  %5 = alloca ptr, align 8
  %6 = alloca ptr, align 8
  %7 = alloca i8, align 1
  %8 = alloca i32, align 4
  %9 = alloca i32, align 4
  %10 = alloca i32, align 4
  %11 = getelementptr inbounds nuw %union._PyStackRef, ptr %3, i32 0, i32 0
  store i64 %0, ptr %11, align 8
  store ptr %1, ptr %4, align 8, !tbaa !4
  call void @llvm.lifetime.start.p0(i64 8, ptr %5) #7
  %12 = load ptr, ptr %4, align 8, !tbaa !4
  %13 = getelementptr %union._Py_CODEUNIT, ptr %12, i64 1
  store ptr %13, ptr %5, align 8, !tbaa !4
  call void @llvm.lifetime.start.p0(i64 8, ptr %6) #7
  %14 = load i64, ptr %3, align 8, !tbaa !15
  %15 = inttoptr i64 %14 to ptr
  store ptr %15, ptr %6, align 8, !tbaa !18
  call void @llvm.lifetime.start.p0(i64 1, ptr %7) #7
  %16 = load ptr, ptr %6, align 8, !tbaa !18
  %17 = call i32 @Py_IS_TYPE(ptr noundef %16, ptr noundef @PyBool_Type)
  %18 = icmp ne i32 %17, 0
  br i1 %18, label %19, label %20

19:                                               ; preds = %2
  store i8 -32, ptr %7, align 1, !tbaa !15
  br label %66

20:                                               ; preds = %2
  %21 = load ptr, ptr %6, align 8, !tbaa !18
  %22 = call i32 @Py_IS_TYPE(ptr noundef %21, ptr noundef @PyLong_Type)
  %23 = icmp ne i32 %22, 0
  br i1 %23, label %24, label %25

24:                                               ; preds = %20
  store i8 -31, ptr %7, align 1, !tbaa !15
  br label %66

25:                                               ; preds = %20
  %26 = load ptr, ptr %6, align 8, !tbaa !18
  %27 = call i32 @Py_IS_TYPE(ptr noundef %26, ptr noundef @PyList_Type)
  %28 = icmp ne i32 %27, 0
  br i1 %28, label %29, label %30

29:                                               ; preds = %25
  store i8 -30, ptr %7, align 1, !tbaa !15
  br label %66

30:                                               ; preds = %25
  %31 = load ptr, ptr %6, align 8, !tbaa !18
  %32 = icmp eq ptr %31, @_Py_NoneStruct
  br i1 %32, label %33, label %34

33:                                               ; preds = %30
  store i8 -29, ptr %7, align 1, !tbaa !15
  br label %66

34:                                               ; preds = %30
  %35 = load ptr, ptr %6, align 8, !tbaa !18
  %36 = call i32 @Py_IS_TYPE(ptr noundef %35, ptr noundef @PyUnicode_Type)
  %37 = icmp ne i32 %36, 0
  br i1 %37, label %38, label %39

38:                                               ; preds = %34
  store i8 -28, ptr %7, align 1, !tbaa !15
  br label %66

39:                                               ; preds = %34
  %40 = load ptr, ptr %6, align 8, !tbaa !18
  %41 = call ptr @_Py_TYPE(ptr noundef %40)
  %42 = call i32 @PyType_HasFeature(ptr noundef %41, i64 noundef 512)
  %43 = icmp ne i32 %42, 0
  br i1 %43, label %44, label %63

44:                                               ; preds = %39
  call void @llvm.lifetime.start.p0(i64 4, ptr %8) #7
  store i32 0, ptr %8, align 4, !tbaa !10
  call void @llvm.lifetime.start.p0(i64 4, ptr %9) #7
  %45 = load ptr, ptr %6, align 8, !tbaa !18
  %46 = call ptr @_Py_TYPE(ptr noundef %45)
  %47 = call i32 @_PyType_Validate(ptr noundef %46, ptr noundef @check_type_always_true, ptr noundef %8)
  store i32 %47, ptr %9, align 4, !tbaa !10
  %48 = load i32, ptr %9, align 4, !tbaa !10
  %49 = icmp slt i32 %48, 0
  br i1 %49, label %50, label %51

50:                                               ; preds = %44
  store i32 3, ptr %10, align 4
  br label %61

51:                                               ; preds = %44
  %52 = load i32, ptr %9, align 4, !tbaa !10
  %53 = icmp sgt i32 %52, 0
  br i1 %53, label %54, label %55

54:                                               ; preds = %51
  store i32 3, ptr %10, align 4
  br label %61

55:                                               ; preds = %51
  br label %56

56:                                               ; preds = %55
  %57 = load ptr, ptr %5, align 8, !tbaa !4
  %58 = getelementptr inbounds nuw %struct._PyToBoolCache, ptr %57, i32 0, i32 1
  %59 = getelementptr inbounds [2 x i16], ptr %58, i64 0, i64 0
  %60 = load i32, ptr %8, align 4, !tbaa !10
  call void @write_u32(ptr noundef %59, i32 noundef %60)
  store i8 -33, ptr %7, align 1, !tbaa !15
  store i32 2, ptr %10, align 4
  br label %61

61:                                               ; preds = %56, %54, %50
  call void @llvm.lifetime.end.p0(i64 4, ptr %9) #7
  call void @llvm.lifetime.end.p0(i64 4, ptr %8) #7
  %62 = load i32, ptr %10, align 4
  switch i32 %62, label %69 [
    i32 3, label %64
    i32 2, label %66
  ]

63:                                               ; preds = %39
  br label %64

64:                                               ; preds = %63, %61
  %65 = load ptr, ptr %4, align 8, !tbaa !4
  call void @unspecialize(ptr noundef %65)
  store i32 1, ptr %10, align 4
  br label %69

66:                                               ; preds = %61, %38, %33, %29, %24, %19
  %67 = load ptr, ptr %4, align 8, !tbaa !4
  %68 = load i8, ptr %7, align 1, !tbaa !15
  call void @specialize(ptr noundef %67, i8 noundef zeroext %68)
  store i32 0, ptr %10, align 4
  br label %69

69:                                               ; preds = %66, %64, %61
  call void @llvm.lifetime.end.p0(i64 1, ptr %7) #7
  call void @llvm.lifetime.end.p0(i64 8, ptr %6) #7
  call void @llvm.lifetime.end.p0(i64 8, ptr %5) #7
  %70 = load i32, ptr %10, align 4
  switch i32 %70, label %72 [
    i32 0, label %71
    i32 1, label %71
  ]

71:                                               ; preds = %69, %69
  ret void

72:                                               ; preds = %69
  unreachable
}