; Function Attrs: nounwind uwtable
define hidden void @_Py_Specialize_ToBool(i64 %0, ptr noundef captures(none) %1) local_unnamed_addr #3 {
  %3 = alloca i32, align 4
  %4 = inttoptr i64 %0 to ptr
  %5 = getelementptr i8, ptr %4, i64 8
  %.val27 = load ptr, ptr %5, align 8, !tbaa !9
  %.not = icmp eq ptr %.val27, @PyBool_Type
  br i1 %.not, label %33, label %6

6:                                                ; preds = %2
  %.not31 = icmp eq ptr %.val27, @PyLong_Type
  br i1 %.not31, label %33, label %7

7:                                                ; preds = %6
  %.not32 = icmp eq ptr %.val27, @PyList_Type
  br i1 %.not32, label %33, label %8

8:                                                ; preds = %7
  %9 = icmp eq i64 %0, ptrtoint (ptr @_Py_NoneStruct to i64)
  br i1 %9, label %33, label %10

10:                                               ; preds = %8
  %.not33 = icmp eq ptr %.val27, @PyUnicode_Type
  br i1 %.not33, label %33, label %11

11:                                               ; preds = %10
  %12 = getelementptr i8, ptr %.val27, i64 168
  %.val23 = load i64, ptr %12, align 8, !tbaa !13
  %13 = and i64 %.val23, 512
  %.not20 = icmp eq i64 %13, 0
  br i1 %.not20, label %19, label %14

14:                                               ; preds = %11
  call void @llvm.lifetime.start.p0(i64 4, ptr nonnull %3) #9
  store i32 0, ptr %3, align 4, !tbaa !47
  %15 = call i32 @_PyType_Validate(ptr noundef nonnull %.val27, ptr noundef nonnull @check_type_always_true, ptr noundef nonnull %3) #9
  %.not21 = icmp eq i32 %15, 0
  br i1 %.not21, label %16, label %.thread

.thread:                                          ; preds = %14
  call void @llvm.lifetime.end.p0(i64 4, ptr nonnull %3) #9
  br label %19

16:                                               ; preds = %14
  %17 = getelementptr i8, ptr %1, i64 4
  %18 = load i32, ptr %3, align 4, !tbaa !47
  store i32 %18, ptr %17, align 2
  call void @llvm.lifetime.end.p0(i64 4, ptr nonnull %3) #9
  br label %33

19:                                               ; preds = %.thread, %11
  %20 = load i8, ptr %1, align 2, !tbaa !4
  %21 = zext i8 %20 to i64
  %22 = getelementptr [256 x i8], ptr @_PyOpcode_Deopt, i64 0, i64 %21
  %23 = load i8, ptr %22, align 1, !tbaa !4
  store i8 %23, ptr %1, align 2, !tbaa !4
  %24 = getelementptr i8, ptr %1, i64 2
  %.val.i = load i16, ptr %24, align 2, !tbaa !24
  %25 = and i16 %.val.i, 15
  %26 = icmp samesign ult i16 %25, 12
  br i1 %26, label %27, label %unspecialize.exit

27:                                               ; preds = %19
  %narrow.i.i.i = add nuw nsw i16 %25, 1
  %28 = zext nneg i16 %narrow.i.i.i to i32
  %notmask.i.i.i = shl nsw i32 -1, %28
  %29 = trunc i32 %notmask.i.i.i to i16
  %30 = xor i16 %29, -1
  %31 = shl nuw i16 %30, 4
  %32 = or i16 %31, %narrow.i.i.i
  br label %unspecialize.exit

unspecialize.exit:                                ; preds = %19, %27
  %.sroa.03.0.i.i.i = phi i16 [ %32, %27 ], [ -4, %19 ]
  store i16 %.sroa.03.0.i.i.i, ptr %24, align 2, !tbaa !24
  br label %35

33:                                               ; preds = %16, %10, %8, %7, %6, %2
  %.014 = phi i8 [ -33, %16 ], [ -32, %2 ], [ -31, %6 ], [ -30, %7 ], [ -29, %8 ], [ -28, %10 ]
  store i8 %.014, ptr %1, align 2, !tbaa !4
  %34 = getelementptr i8, ptr %1, i64 2
  store i16 832, ptr %34, align 2, !tbaa !24
  br label %35

35:                                               ; preds = %33, %unspecialize.exit
  ret void
}